target datalayout = "e-m:e-p270:32:32-p271:32:32-p272:64:64-i64:64-i128:128-f80:128-n8:16:32:64-S128"
target triple = "x86_64-unknown-linux-gnu"

%"class.rocksdb::Slice" = type { ptr, i64 }
%"class.std::__cxx11::basic_string" = type { %"struct.std::__cxx11::basic_string<char>::_Alloc_hider", i64, %union.anon }
%"struct.std::__cxx11::basic_string<char>::_Alloc_hider" = type { ptr }
%union.anon = type { i64, [8 x i8] }
%"class.rocksdb::BlobContents" = type { %"class.std::unique_ptr.85", %"class.rocksdb::Slice" }
%"class.std::unique_ptr.85" = type { %"struct.std::__uniq_ptr_data.86" }
%"struct.std::__uniq_ptr_data.86" = type { %"class.std::__uniq_ptr_impl.87" }
%"class.std::__uniq_ptr_impl.87" = type { %"class.std::tuple.88" }
%"class.std::tuple.88" = type { %"struct.std::_Tuple_impl.89" }
%"struct.std::_Tuple_impl.89" = type { %"struct.std::_Tuple_impl.90", %"struct.std::_Head_base.92" }
%"struct.std::_Tuple_impl.90" = type { %"struct.std::_Head_base.91" }
%"struct.std::_Head_base.91" = type { %"struct.rocksdb::CustomDeleter" }
%"struct.rocksdb::CustomDeleter" = type { ptr }
%"struct.std::_Head_base.92" = type { ptr }
%"class.std::unique_ptr.93" = type { %"struct.std::__uniq_ptr_data.94" }
%"struct.std::__uniq_ptr_data.94" = type { %"class.std::__uniq_ptr_impl.95" }
%"class.std::__uniq_ptr_impl.95" = type { %"class.std::tuple.96" }
%"class.std::tuple.96" = type { %"struct.std::_Tuple_impl.97" }
%"struct.std::_Tuple_impl.97" = type { %"struct.std::_Head_base.100" }
%"struct.std::_Head_base.100" = type { ptr }
%"class.rocksdb::PinnableSlice" = type <{ %"class.rocksdb::Slice", %"class.rocksdb::Cleanable", %"class.std::__cxx11::basic_string", ptr, i8, [7 x i8] }>
%"class.rocksdb::Cleanable" = type { %"struct.rocksdb::Cleanable::Cleanup" }
%"struct.rocksdb::Cleanable::Cleanup" = type { ptr, ptr, ptr, ptr }
%class.anon = type { i8 }

; Function Attrs: mustprogress nounwind uwtable
define linkonce_odr noundef nonnull align 8 dereferenceable(8) ptr @_ZNSt10_Head_baseILm0EPN7rocksdb12BlobContentsELb0EE7_M_headERS3_(ptr noundef nonnull align 8 dereferenceable(8) %__b) #1 comdat align 2 {
entry:
  %__b.addr = alloca ptr, align 8
  store ptr %__b, ptr %__b.addr, align 8
  %0 = load ptr, ptr %__b.addr, align 8
  %_M_head_impl = getelementptr inbounds %"struct.std::_Head_base.100", ptr %0, i32 0, i32 0
  ret ptr %_M_head_impl
}

; Function Attrs: mustprogress nounwind uwtable
define linkonce_odr noundef nonnull align 8 dereferenceable(8) ptr @_ZNSt11_Tuple_implILm0EJPN7rocksdb12BlobContentsESt14default_deleteIS1_EEE7_M_headERS5_(ptr noundef nonnull align 8 dereferenceable(8) %__t) #1 comdat align 2 {
entry:
  %__t.addr = alloca ptr, align 8
  store ptr %__t, ptr %__t.addr, align 8
  %0 = load ptr, ptr %__t.addr, align 8
  %call = call noundef nonnull align 8 dereferenceable(8) ptr @_ZNSt10_Head_baseILm0EPN7rocksdb12BlobContentsELb0EE7_M_headERS3_(ptr noundef nonnull align 8 dereferenceable(8) %0) #3
  ret ptr %call
}

; Function Attrs: mustprogress nounwind uwtable
define linkonce_odr noundef nonnull align 8 dereferenceable(8) ptr @_ZSt12__get_helperILm0EPN7rocksdb12BlobContentsEJSt14default_deleteIS1_EEERT0_RSt11_Tuple_implIXT_EJS5_DpT1_EE(ptr noundef nonnull align 8 dereferenceable(8) %__t) #1 comdat {
entry:
  %__t.addr = alloca ptr, align 8
  store ptr %__t, ptr %__t.addr, align 8
  %0 = load ptr, ptr %__t.addr, align 8
  %call = call noundef nonnull align 8 dereferenceable(8) ptr @_ZNSt11_Tuple_implILm0EJPN7rocksdb12BlobContentsESt14default_deleteIS1_EEE7_M_headERS5_(ptr noundef nonnull align 8 dereferenceable(8) %0) #3
  ret ptr %call
}

; Function Attrs: mustprogress nounwind uwtable
define linkonce_odr noundef nonnull align 8 dereferenceable(8) ptr @_ZSt3getILm0EJPN7rocksdb12BlobContentsESt14default_deleteIS1_EEERNSt13tuple_elementIXT_ESt5tupleIJDpT0_EEE4typeERS9_(ptr noundef nonnull align 8 dereferenceable(8) %__t) #1 comdat {
entry:
  %__t.addr = alloca ptr, align 8
  store ptr %__t, ptr %__t.addr, align 8
  %0 = load ptr, ptr %__t.addr, align 8
  %call = call noundef nonnull align 8 dereferenceable(8) ptr @_ZSt12__get_helperILm0EPN7rocksdb12BlobContentsEJSt14default_deleteIS1_EEERT0_RSt11_Tuple_implIXT_EJS5_DpT1_EE(ptr noundef nonnull align 8 dereferenceable(8) %0) #3
  ret ptr %call
}

; Function Attrs: mustprogress uwtable
define linkonce_odr void @_ZN7rocksdb9Cleanable9DoCleanupEv(ptr noundef nonnull align 8 dereferenceable(32) %this) #0 comdat align 2 {
entry:
  %this.addr = alloca ptr, align 8
  %c = alloca ptr, align 8
  %next11 = alloca ptr, align 8
  store ptr %this, ptr %this.addr, align 8
  %this1 = load ptr, ptr %this.addr, align 8
  %cleanup_ = getelementptr inbounds %"class.rocksdb::Cleanable", ptr %this1, i32 0, i32 0
  %function = getelementptr inbounds %"struct.rocksdb::Cleanable::Cleanup", ptr %cleanup_, i32 0, i32 0
  %0 = load ptr, ptr %function, align 8
  %cmp = icmp ne ptr %0, null
  br i1 %cmp, label %if.then, label %if.end

if.then:                                          ; preds = %entry
  %cleanup_2 = getelementptr inbounds %"class.rocksdb::Cleanable", ptr %this1, i32 0, i32 0
  %function3 = getelementptr inbounds %"struct.rocksdb::Cleanable::Cleanup", ptr %cleanup_2, i32 0, i32 0
  %1 = load ptr, ptr %function3, align 8
  %cleanup_4 = getelementptr inbounds %"class.rocksdb::Cleanable", ptr %this1, i32 0, i32 0
  %arg1 = getelementptr inbounds %"struct.rocksdb::Cleanable::Cleanup", ptr %cleanup_4, i32 0, i32 1
  %2 = load ptr, ptr %arg1, align 8
  %cleanup_5 = getelementptr inbounds %"class.rocksdb::Cleanable", ptr %this1, i32 0, i32 0
  %arg2 = getelementptr inbounds %"struct.rocksdb::Cleanable::Cleanup", ptr %cleanup_5, i32 0, i32 2
  %3 = load ptr, ptr %arg2, align 8
  call void %1(ptr noundef %2, ptr noundef %3)
  %cleanup_6 = getelementptr inbounds %"class.rocksdb::Cleanable", ptr %this1, i32 0, i32 0
  %next = getelementptr inbounds %"struct.rocksdb::Cleanable::Cleanup", ptr %cleanup_6, i32 0, i32 3
  %4 = load ptr, ptr %next, align 8
  store ptr %4, ptr %c, align 8
  br label %for.cond

for.cond:                                         ; preds = %delete.end, %if.then
  %5 = load ptr, ptr %c, align 8
  %cmp7 = icmp ne ptr %5, null
  br i1 %cmp7, label %for.body, label %for.end

for.body:                                         ; preds = %for.cond
  %6 = load ptr, ptr %c, align 8
  %function8 = getelementptr inbounds %"struct.rocksdb::Cleanable::Cleanup", ptr %6, i32 0, i32 0
  %7 = load ptr, ptr %function8, align 8
  %8 = load ptr, ptr %c, align 8
  %arg19 = getelementptr inbounds %"struct.rocksdb::Cleanable::Cleanup", ptr %8, i32 0, i32 1
  %9 = load ptr, ptr %arg19, align 8
  %10 = load ptr, ptr %c, align 8
  %arg210 = getelementptr inbounds %"struct.rocksdb::Cleanable::Cleanup", ptr %10, i32 0, i32 2
  %11 = load ptr, ptr %arg210, align 8
  call void %7(ptr noundef %9, ptr noundef %11)
  %12 = load ptr, ptr %c, align 8
  %next12 = getelementptr inbounds %"struct.rocksdb::Cleanable::Cleanup", ptr %12, i32 0, i32 3
  %13 = load ptr, ptr %next12, align 8
  store ptr %13, ptr %next11, align 8
  %14 = load ptr, ptr %c, align 8
  %isnull = icmp eq ptr %14, null
  br i1 %isnull, label %delete.end, label %delete.notnull

delete.notnull:                                   ; preds = %for.body
  call void @_ZdlPv(ptr noundef %14) #19
  br label %delete.end

delete.end:                                       ; preds = %delete.notnull, %for.body
  %15 = load ptr, ptr %next11, align 8
  store ptr %15, ptr %c, align 8
  br label %for.cond, !llvm.loop !9

for.end:                                          ; preds = %for.cond
  br label %if.end

if.end:                                           ; preds = %for.end, %entry
  ret void
}

; Function Attrs: mustprogress nounwind uwtable
define linkonce_odr noundef nonnull align 8 dereferenceable(8) ptr @_ZNSt15__uniq_ptr_implIN7rocksdb12BlobContentsESt14default_deleteIS1_EE6_M_ptrEv(ptr noundef nonnull align 8 dereferenceable(8) %this) #1 comdat align 2 {
entry:
  %this.addr = alloca ptr, align 8
  store ptr %this, ptr %this.addr, align 8
  %this1 = load ptr, ptr %this.addr, align 8
  %_M_t = getelementptr inbounds %"class.std::__uniq_ptr_impl.95", ptr %this1, i32 0, i32 0
  %call = call noundef nonnull align 8 dereferenceable(8) ptr @_ZSt3getILm0EJPN7rocksdb12BlobContentsESt14default_deleteIS1_EEERNSt13tuple_elementIXT_ESt5tupleIJDpT0_EEE4typeERS9_(ptr noundef nonnull align 8 dereferenceable(8) %_M_t) #3
  ret ptr %call
}

; Function Attrs: mustprogress nounwind uwtable
define linkonce_odr noundef i64 @_ZNK7rocksdb5Slice4sizeEv(ptr noundef nonnull align 8 dereferenceable(16) %this) #1 comdat align 2 {
entry:
  %this.addr = alloca ptr, align 8
  store ptr %this, ptr %this.addr, align 8
  %this1 = load ptr, ptr %this.addr, align 8
  %size_ = getelementptr inbounds %"class.rocksdb::Slice", ptr %this1, i32 0, i32 1
  %0 = load i64, ptr %size_, align 8
  ret i64 %0
}

; Function Attrs: mustprogress nounwind uwtable
define linkonce_odr noundef ptr @_ZNK7rocksdb5Slice4dataEv(ptr noundef nonnull align 8 dereferenceable(16) %this) #1 comdat align 2 {
entry:
  %this.addr = alloca ptr, align 8
  store ptr %this, ptr %this.addr, align 8
  %this1 = load ptr, ptr %this.addr, align 8
  %data_ = getelementptr inbounds %"class.rocksdb::Slice", ptr %this1, i32 0, i32 0
  %0 = load ptr, ptr %data_, align 8
  ret ptr %0
}

; Function Attrs: mustprogress uwtable
define linkonce_odr void @_ZN7rocksdb9Cleanable5ResetEv(ptr noundef nonnull align 8 dereferenceable(32) %this) #0 comdat align 2 {
entry:
  %this.addr = alloca ptr, align 8
  store ptr %this, ptr %this.addr, align 8
  %this1 = load ptr, ptr %this.addr, align 8
  call void @_ZN7rocksdb9Cleanable9DoCleanupEv(ptr noundef nonnull align 8 dereferenceable(32) %this1)
  %cleanup_ = getelementptr inbounds %"class.rocksdb::Cleanable", ptr %this1, i32 0, i32 0
  %function = getelementptr inbounds %"struct.rocksdb::Cleanable::Cleanup", ptr %cleanup_, i32 0, i32 0
  store ptr null, ptr %function, align 8
  %cleanup_2 = getelementptr inbounds %"class.rocksdb::Cleanable", ptr %this1, i32 0, i32 0
  %next = getelementptr inbounds %"struct.rocksdb::Cleanable::Cleanup", ptr %cleanup_2, i32 0, i32 3
  store ptr null, ptr %next, align 8
  ret void
}

; Function Attrs: mustprogress nounwind uwtable
define linkonce_odr noundef ptr @_ZNSt15__uniq_ptr_implIN7rocksdb12BlobContentsESt14default_deleteIS1_EE7releaseEv(ptr noundef nonnull align 8 dereferenceable(8) %this) #1 comdat align 2 {
entry:
  %this.addr = alloca ptr, align 8
  %__p = alloca ptr, align 8
  store ptr %this, ptr %this.addr, align 8
  %this1 = load ptr, ptr %this.addr, align 8
  %call = call noundef nonnull align 8 dereferenceable(8) ptr @_ZNSt15__uniq_ptr_implIN7rocksdb12BlobContentsESt14default_deleteIS1_EE6_M_ptrEv(ptr noundef nonnull align 8 dereferenceable(8) %this1) #3
  %0 = load ptr, ptr %call, align 8
  store ptr %0, ptr %__p, align 8
  %call2 = call noundef nonnull align 8 dereferenceable(8) ptr @_ZNSt15__uniq_ptr_implIN7rocksdb12BlobContentsESt14default_deleteIS1_EE6_M_ptrEv(ptr noundef nonnull align 8 dereferenceable(8) %this1) #3
  store ptr null, ptr %call2, align 8
  %1 = load ptr, ptr %__p, align 8
  ret ptr %1
}

; Function Attrs: mustprogress uwtable
define linkonce_odr void @_ZN7rocksdb13PinnableSlice8PinSliceERKNS_5SliceEPFvPvS4_ES4_S4_(ptr noundef nonnull align 8 dereferenceable(89) %this, ptr noundef nonnull align 8 dereferenceable(16) %s, ptr noundef %f, ptr noundef %arg1, ptr noundef %arg2) #0 comdat align 2 {
entry:
  %this.addr = alloca ptr, align 8
  %s.addr = alloca ptr, align 8
  %f.addr = alloca ptr, align 8
  %arg1.addr = alloca ptr, align 8
  %arg2.addr = alloca ptr, align 8
  store ptr %this, ptr %this.addr, align 8
  store ptr %s, ptr %s.addr, align 8
  store ptr %f, ptr %f.addr, align 8
  store ptr %arg1, ptr %arg1.addr, align 8
  store ptr %arg2, ptr %arg2.addr, align 8
  %this1 = load ptr, ptr %this.addr, align 8
  %pinned_ = getelementptr inbounds %"class.rocksdb::PinnableSlice", ptr %this1, i32 0, i32 4
  store i8 1, ptr %pinned_, align 8
  %0 = load ptr, ptr %s.addr, align 8
  %call = call noundef ptr @_ZNK7rocksdb5Slice4dataEv(ptr noundef nonnull align 8 dereferenceable(16) %0)
  %data_ = getelementptr inbounds %"class.rocksdb::Slice", ptr %this1, i32 0, i32 0
  store ptr %call, ptr %data_, align 8
  %1 = load ptr, ptr %s.addr, align 8
  %call2 = call noundef i64 @_ZNK7rocksdb5Slice4sizeEv(ptr noundef nonnull align 8 dereferenceable(16) %1)
  %size_ = getelementptr inbounds %"class.rocksdb::Slice", ptr %this1, i32 0, i32 1
  store i64 %call2, ptr %size_, align 8
  %add.ptr = getelementptr inbounds i8, ptr %this1, i64 16
  %2 = load ptr, ptr %f.addr, align 8
  %3 = load ptr, ptr %arg1.addr, align 8
  %4 = load ptr, ptr %arg2.addr, align 8
  call void @_ZN7rocksdb9Cleanable15RegisterCleanupEPFvPvS1_ES1_S1_(ptr noundef nonnull align 8 dereferenceable(32) %add.ptr, ptr noundef %2, ptr noundef %3, ptr noundef %4)
  ret void
}

; Function Attrs: mustprogress nounwind uwtable
define internal noundef ptr @"_ZZN7rocksdb10BlobSource12PinOwnedBlobEPSt10unique_ptrINS_12BlobContentsESt14default_deleteIS2_EEPNS_13PinnableSliceEENK3$_0cvPFvPvSA_EEv"(ptr noundef nonnull align 1 dereferenceable(1) %this) #1 align 2 {
entry:
  %this.addr = alloca ptr, align 8
  store ptr %this, ptr %this.addr, align 8
  ret ptr @"_ZZN7rocksdb10BlobSource12PinOwnedBlobEPSt10unique_ptrINS_12BlobContentsESt14default_deleteIS2_EEPNS_13PinnableSliceEEN3$_08__invokeEPvSA_"
}

; Function Attrs: mustprogress nounwind uwtable
define linkonce_odr noundef nonnull align 8 dereferenceable(16) ptr @_ZNK7rocksdb12BlobContents4dataEv(ptr noundef nonnull align 8 dereferenceable(32) %this) #1 comdat align 2 {
entry:
  %this.addr = alloca ptr, align 8
  store ptr %this, ptr %this.addr, align 8
  %this1 = load ptr, ptr %this.addr, align 8
  %data_ = getelementptr inbounds %"class.rocksdb::BlobContents", ptr %this1, i32 0, i32 1
  ret ptr %data_
}

; Function Attrs: mustprogress uwtable
define linkonce_odr void @_ZN7rocksdb13PinnableSlice5ResetEv(ptr noundef nonnull align 8 dereferenceable(89) %this) #0 comdat align 2 {
entry:
  %this.addr = alloca ptr, align 8
  store ptr %this, ptr %this.addr, align 8
  %this1 = load ptr, ptr %this.addr, align 8
  %add.ptr = getelementptr inbounds i8, ptr %this1, i64 16
  call void @_ZN7rocksdb9Cleanable5ResetEv(ptr noundef nonnull align 8 dereferenceable(32) %add.ptr)
  %pinned_ = getelementptr inbounds %"class.rocksdb::PinnableSlice", ptr %this1, i32 0, i32 4
  store i8 0, ptr %pinned_, align 8
  %size_ = getelementptr inbounds %"class.rocksdb::Slice", ptr %this1, i32 0, i32 1
  store i64 0, ptr %size_, align 8
  ret void
}

; Function Attrs: mustprogress nounwind uwtable
define linkonce_odr noundef ptr @_ZNSt10unique_ptrIN7rocksdb12BlobContentsESt14default_deleteIS1_EE7releaseEv(ptr noundef nonnull align 8 dereferenceable(8) %this) #1 comdat align 2 {
entry:
  %this.addr = alloca ptr, align 8
  store ptr %this, ptr %this.addr, align 8
  %this1 = load ptr, ptr %this.addr, align 8
  %_M_t = getelementptr inbounds %"class.std::unique_ptr.93", ptr %this1, i32 0, i32 0
  %call = call noundef ptr @_ZNSt15__uniq_ptr_implIN7rocksdb12BlobContentsESt14default_deleteIS1_EE7releaseEv(ptr noundef nonnull align 8 dereferenceable(8) %_M_t) #3
  ret ptr %call
}

; Function Attrs: mustprogress uwtable
define void @_ZN7rocksdb10BlobSource12PinOwnedBlobEPSt10unique_ptrINS_12BlobContentsESt14default_deleteIS2_EEPNS_13PinnableSliceE(ptr noundef %owned_blob, ptr noundef %value) #0 align 2 {
entry:
  %owned_blob.addr = alloca ptr, align 8
  %value.addr = alloca ptr, align 8
  %blob = alloca ptr, align 8
  %ref.tmp = alloca %class.anon, align 1
  store ptr %owned_blob, ptr %owned_blob.addr, align 8
  store ptr %value, ptr %value.addr, align 8
  %0 = load ptr, ptr %owned_blob.addr, align 8
  %call = call noundef ptr @_ZNSt10unique_ptrIN7rocksdb12BlobContentsESt14default_deleteIS1_EE7releaseEv(ptr noundef nonnull align 8 dereferenceable(8) %0) #3
  store ptr %call, ptr %blob, align 8
  %1 = load ptr, ptr %value.addr, align 8
  call void @_ZN7rocksdb13PinnableSlice5ResetEv(ptr noundef nonnull align 8 dereferenceable(89) %1)
  %2 = load ptr, ptr %value.addr, align 8
  %3 = load ptr, ptr %blob, align 8
  %call1 = call noundef nonnull align 8 dereferenceable(16) ptr @_ZNK7rocksdb12BlobContents4dataEv(ptr noundef nonnull align 8 dereferenceable(32) %3)
  %call2 = call noundef ptr @"_ZZN7rocksdb10BlobSource12PinOwnedBlobEPSt10unique_ptrINS_12BlobContentsESt14default_deleteIS2_EEPNS_13PinnableSliceEENK3$_0cvPFvPvSA_EEv"(ptr noundef nonnull align 1 dereferenceable(1) %ref.tmp) #3
  %4 = load ptr, ptr %blob, align 8
  call void @_ZN7rocksdb13PinnableSlice8PinSliceERKNS_5SliceEPFvPvS4_ES4_S4_(ptr noundef nonnull align 8 dereferenceable(89) %2, ptr noundef nonnull align 8 dereferenceable(16) %call1, ptr noundef %call2, ptr noundef %4, ptr noundef null)
  ret void
}